; ModuleID = '54/124.c'
source_filename = "54/124.c"
target datalayout = "e-m:e-p270:32:32-p271:32:32-p272:64:64-i64:64-f80:128-n8:16:32:64-S128"
target triple = "x86_64-pc-linux-gnu"

@.str = private unnamed_addr constant [7 x i8] c"%ld%ld\00", align 1
@.str.1 = private unnamed_addr constant [4 x i8] c"%ld\00", align 1

; Function Attrs: noinline nounwind uwtable
define dso_local void @main() #0 {
  %1 = alloca i64, align 8
  %2 = alloca i64, align 8
  %3 = call i32 (i8*, ...) @__isoc99_scanf(i8* getelementptr inbounds ([7 x i8], [7 x i8]* @.str, i64 0, i64 0), i64* %1, i64* %2)
  %4 = load i64, i64* %1, align 8
  %5 = load i64, i64* %2, align 8
  %6 = call i64 @f(i64 %4, i64 %5)
  %7 = call i32 (i8*, ...) @printf(i8* getelementptr inbounds ([4 x i8], [4 x i8]* @.str.1, i64 0, i64 0), i64 %6)
  ret void
}

declare dso_local i32 @__isoc99_scanf(i8*, ...) #1

declare dso_local i32 @printf(i8*, ...) #1

; Function Attrs: noinline nounwind uwtable
define dso_local i64 @f(i64 %0, i64 %1) #0 {
  %3 = alloca i64, align 8
  %4 = alloca i64, align 8
  %5 = alloca i64, align 8
  %6 = alloca i64, align 8
  %7 = alloca i64, align 8
  %8 = alloca i64, align 8
  store i64 %0, i64* %3, align 8
  store i64 %1, i64* %4, align 8
  store i64 1, i64* %7, align 8
  br label %9

9:                                                ; preds = %41, %2
  store i64 1, i64* %8, align 8
  %10 = load i64, i64* %7, align 8
  %11 = load i64, i64* %3, align 8
  %12 = mul nsw i64 %10, %11
  %13 = load i64, i64* %4, align 8
  %14 = add nsw i64 %12, %13
  store i64 %14, i64* %5, align 8
  store i64 1, i64* %6, align 8
  br label %15

15:                                               ; preds = %35, %9
  %16 = load i64, i64* %6, align 8
  %17 = load i64, i64* %3, align 8
  %18 = icmp slt i64 %16, %17
  br i1 %18, label %19, label %38

19:                                               ; preds = %15
  %20 = load i64, i64* %5, align 8
  %21 = load i64, i64* %3, align 8
  %22 = sub nsw i64 %21, 1
  %23 = srem i64 %20, %22
  %24 = icmp ne i64 %23, 0
  br i1 %24, label %25, label %26

25:                                               ; preds = %19
  store i64 0, i64* %8, align 8
  br label %38

26:                                               ; preds = %19
  %27 = load i64, i64* %3, align 8
  %28 = load i64, i64* %5, align 8
  %29 = mul nsw i64 %27, %28
  %30 = load i64, i64* %3, align 8
  %31 = sub nsw i64 %30, 1
  %32 = sdiv i64 %29, %31
  %33 = load i64, i64* %4, align 8
  %34 = add nsw i64 %32, %33
  store i64 %34, i64* %5, align 8
  br label %35

35:                                               ; preds = %26
  %36 = load i64, i64* %6, align 8
  %37 = add nsw i64 %36, 1
  store i64 %37, i64* %6, align 8
  br label %15

38:                                               ; preds = %25, %15
  %39 = load i64, i64* %7, align 8
  %40 = add nsw i64 %39, 1
  store i64 %40, i64* %7, align 8
  br label %41

41:                                               ; preds = %38
  %42 = load i64, i64* %8, align 8
  %43 = icmp eq i64 %42, 0
  br i1 %43, label %9, label %44

44:                                               ; preds = %41
  %45 = load i64, i64* %5, align 8
  ret i64 %45
}


!llvm.module.flags = !{!0}
!llvm.ident = !{!1}

!0 = !{i32 1, !"wchar_size", i32 4}
!1 = !{!"clang version 10.0.0-4ubuntu1 "}
